target datalayout = "e-m:e-p270:32:32-p271:32:32-p272:64:64-i64:64-i128:128-f80:128-n8:16:32:64-S128"
target triple = "x86_64-pc-linux-gnu"

; Function Attrs: nounwind uwtable
define internal void @SDL_ConvertQuadTo61(ptr noundef %0, ptr noundef %1, i32 noundef %2) #0 {
  %4 = alloca ptr, align 8
  %5 = alloca ptr, align 8
  %6 = alloca i32, align 4
  %7 = alloca i32, align 4
  %8 = alloca float, align 4
  %9 = alloca float, align 4
  store ptr %0, ptr %4, align 8
  store ptr %1, ptr %5, align 8
  store i32 %2, ptr %6, align 4
  call void @llvm.lifetime.start.p0(i64 4, ptr %7) #7
  %10 = load i32, ptr %6, align 4
  %11 = sub nsw i32 %10, 1
  %12 = mul nsw i32 %11, 4
  %13 = load ptr, ptr %5, align 8
  %14 = sext i32 %12 to i64
  %15 = getelementptr inbounds float, ptr %13, i64 %14
  store ptr %15, ptr %5, align 8
  %16 = load i32, ptr %6, align 4
  %17 = sub nsw i32 %16, 1
  %18 = mul nsw i32 %17, 7
  %19 = load ptr, ptr %4, align 8
  %20 = sext i32 %18 to i64
  %21 = getelementptr inbounds float, ptr %19, i64 %20
  store ptr %21, ptr %4, align 8
  %22 = load i32, ptr %6, align 4
  store i32 %22, ptr %7, align 4
  br label %23

23:                                               ; preds = %63, %3
  %24 = load i32, ptr %7, align 4
  %25 = icmp ne i32 %24, 0
  br i1 %25, label %26, label %70

26:                                               ; preds = %23
  call void @llvm.lifetime.start.p0(i64 4, ptr %8) #7
  %27 = load ptr, ptr %5, align 8
  %28 = getelementptr inbounds float, ptr %27, i64 2
  %29 = load float, ptr %28, align 4
  store float %29, ptr %8, align 4
  call void @llvm.lifetime.start.p0(i64 4, ptr %9) #7
  %30 = load ptr, ptr %5, align 8
  %31 = getelementptr inbounds float, ptr %30, i64 3
  %32 = load float, ptr %31, align 4
  store float %32, ptr %9, align 4
  %33 = load float, ptr %9, align 4
  %34 = fmul float %33, 0x3FE978D500000000
  %35 = load ptr, ptr %4, align 8
  %36 = getelementptr inbounds float, ptr %35, i64 6
  store float %34, ptr %36, align 4
  %37 = load float, ptr %8, align 4
  %38 = fmul float %37, 0x3FE978D500000000
  %39 = load ptr, ptr %4, align 8
  %40 = getelementptr inbounds float, ptr %39, i64 5
  store float %38, ptr %40, align 4
  %41 = load float, ptr %9, align 4
  %42 = load float, ptr %8, align 4
  %43 = fmul float %42, 5.000000e-01
  %44 = call float @llvm.fmuladd.f32(float %41, float 5.000000e-01, float %43)
  %45 = load ptr, ptr %4, align 8
  %46 = getelementptr inbounds float, ptr %45, i64 4
  store float %44, ptr %46, align 4
  %47 = load ptr, ptr %4, align 8
  %48 = getelementptr inbounds float, ptr %47, i64 3
  store float 0.000000e+00, ptr %48, align 4
  %49 = load ptr, ptr %4, align 8
  %50 = getelementptr inbounds float, ptr %49, i64 2
  store float 0.000000e+00, ptr %50, align 4
  %51 = load ptr, ptr %5, align 8
  %52 = getelementptr inbounds float, ptr %51, i64 1
  %53 = load float, ptr %52, align 4
  %54 = fmul float %53, 0x3FEE147AE0000000
  %55 = load ptr, ptr %4, align 8
  %56 = getelementptr inbounds float, ptr %55, i64 1
  store float %54, ptr %56, align 4
  %57 = load ptr, ptr %5, align 8
  %58 = getelementptr inbounds float, ptr %57, i64 0
  %59 = load float, ptr %58, align 4
  %60 = fmul float %59, 0x3FEE147AE0000000
  %61 = load ptr, ptr %4, align 8
  %62 = getelementptr inbounds float, ptr %61, i64 0
  store float %60, ptr %62, align 4
  call void @llvm.lifetime.end.p0(i64 4, ptr %9) #7
  call void @llvm.lifetime.end.p0(i64 4, ptr %8) #7
  br label %63

63:                                               ; preds = %26
  %64 = load i32, ptr %7, align 4
  %65 = add nsw i32 %64, -1
  store i32 %65, ptr %7, align 4
  %66 = load ptr, ptr %5, align 8
  %67 = getelementptr inbounds float, ptr %66, i64 -4
  store ptr %67, ptr %5, align 8
  %68 = load ptr, ptr %4, align 8
  %69 = getelementptr inbounds float, ptr %68, i64 -7
  store ptr %69, ptr %4, align 8
  br label %23, !llvm.loop !70

70:                                               ; preds = %23
  call void @llvm.lifetime.end.p0(i64 4, ptr %7) #7
  ret void
}