; Function Attrs: nofree norecurse nosync nounwind memory(argmem: readwrite) uwtable
define internal void @SDL_ConvertQuadTo61(ptr noundef writeonly captures(none) %0, ptr noundef readonly captures(none) %1, i32 noundef %2) #5 {
  %.not25 = icmp eq i32 %2, 0
  br i1 %.not25, label %._crit_edge, label %.lr.ph.preheader

.lr.ph.preheader:                                 ; preds = %3
  %4 = add nsw i32 %2, -1
  %5 = mul nsw i32 %4, 7
  %6 = sext i32 %5 to i64
  %7 = getelementptr inbounds float, ptr %0, i64 %6
  %8 = shl nsw i32 %4, 2
  %9 = sext i32 %8 to i64
  %10 = getelementptr inbounds float, ptr %1, i64 %9
  br label %.lr.ph

.lr.ph:                                           ; preds = %.lr.ph.preheader, %.lr.ph
  %.028 = phi ptr [ %32, %.lr.ph ], [ %7, %.lr.ph.preheader ]
  %.02327 = phi ptr [ %31, %.lr.ph ], [ %10, %.lr.ph.preheader ]
  %.02426 = phi i32 [ %30, %.lr.ph ], [ %2, %.lr.ph.preheader ]
  %11 = getelementptr inbounds nuw i8, ptr %.02327, i64 8
  %12 = load float, ptr %11, align 4
  %13 = getelementptr inbounds nuw i8, ptr %.02327, i64 12
  %14 = load float, ptr %13, align 4
  %15 = fmul float %14, 0x3FE978D500000000
  %16 = getelementptr inbounds nuw i8, ptr %.028, i64 24
  store float %15, ptr %16, align 4
  %17 = fmul float %12, 0x3FE978D500000000
  %18 = getelementptr inbounds nuw i8, ptr %.028, i64 20
  store float %17, ptr %18, align 4
  %19 = fmul float %12, 5.000000e-01
  %20 = tail call float @llvm.fmuladd.f32(float %14, float 5.000000e-01, float %19)
  %21 = getelementptr inbounds nuw i8, ptr %.028, i64 16
  store float %20, ptr %21, align 4
  %22 = getelementptr inbounds nuw i8, ptr %.028, i64 12
  store float 0.000000e+00, ptr %22, align 4
  %23 = getelementptr inbounds nuw i8, ptr %.028, i64 8
  store float 0.000000e+00, ptr %23, align 4
  %24 = getelementptr inbounds nuw i8, ptr %.02327, i64 4
  %25 = load float, ptr %24, align 4
  %26 = fmul float %25, 0x3FEE147AE0000000
  %27 = getelementptr inbounds nuw i8, ptr %.028, i64 4
  store float %26, ptr %27, align 4
  %28 = load float, ptr %.02327, align 4
  %29 = fmul float %28, 0x3FEE147AE0000000
  store float %29, ptr %.028, align 4
  %30 = add nsw i32 %.02426, -1
  %31 = getelementptr inbounds i8, ptr %.02327, i64 -16
  %32 = getelementptr inbounds i8, ptr %.028, i64 -28
  %.not = icmp eq i32 %30, 0
  br i1 %.not, label %._crit_edge, label %.lr.ph, !llvm.loop !76

._crit_edge:                                      ; preds = %.lr.ph, %3
  ret void
}